; Function Attrs: mustprogress uwtable
define dso_local void @_ZN4base9Histogram10AddSamplesERKNS_16HistogramSamplesE(ptr nocapture noundef nonnull readonly align 8 dereferenceable(81) %this, ptr noundef nonnull align 8 dereferenceable(40) %samples) unnamed_addr #0 align 2 {
entry:
  %samples_ = getelementptr inbounds i8, ptr %this, i64 64
  %0 = load ptr, ptr %samples_, align 8
  %vtable = load ptr, ptr %0, align 8
  %vfn = getelementptr inbounds i8, ptr %vtable, i64 40
  %1 = load ptr, ptr %vfn, align 8
  tail call void %1(ptr noundef nonnull align 8 dereferenceable(40) %0, ptr noundef nonnull align 8 dereferenceable(40) %samples)
  ret void
}